; ModuleID = 'source-C-CXX/36/739.c'
source_filename = "source-C-CXX/36/739.c"
target datalayout = "e-m:e-p270:32:32-p271:32:32-p272:64:64-i64:64-f80:128-n8:16:32:64-S128"
target triple = "x86_64-pc-linux-gnu"

@.str = private unnamed_addr constant [3 x i8] c"%d\00", align 1
@.str.1 = private unnamed_addr constant [3 x i8] c"%s\00", align 1
@.str.3 = private unnamed_addr constant [3 x i8] c"no\00", align 1

; Function Attrs: nofree nounwind sspstrong uwtable
define dso_local i32 @main() local_unnamed_addr #0 {
  %1 = alloca [100000 x i8], align 16
  %2 = alloca i32, align 4
  %3 = getelementptr inbounds [100000 x i8], [100000 x i8]* %1, i64 0, i64 0
  call void @llvm.lifetime.start.p0i8(i64 100000, i8* nonnull %3) #4
  %4 = bitcast i32* %2 to i8*
  call void @llvm.lifetime.start.p0i8(i64 4, i8* nonnull %4) #4
  %5 = call i32 (i8*, ...) @__isoc99_scanf(i8* getelementptr inbounds ([3 x i8], [3 x i8]* @.str, i64 0, i64 0), i32* nonnull %2)
  %6 = load i32, i32* %2, align 4, !tbaa !5
  %7 = icmp sgt i32 %6, 0
  br i1 %7, label %8, label %41

8:                                                ; preds = %0, %36
  %9 = call i32 (i8*, ...) @__isoc99_scanf(i8* getelementptr inbounds ([3 x i8], [3 x i8]* @.str.1, i64 0, i64 0), i8* nonnull %3)
  %10 = load i8, i8* %3, align 16
  %11 = icmp eq i8 %10, 0
  br i1 %11, label %34, label %12

12:                                               ; preds = %8, %26
  %13 = phi i64 [ %27, %26 ], [ 0, %8 ]
  %14 = phi i8 [ %29, %26 ], [ %10, %8 ]
  br label %19

15:                                               ; preds = %19
  %16 = getelementptr inbounds [100000 x i8], [100000 x i8]* %1, i64 0, i64 %25
  %17 = load i8, i8* %16, align 1, !tbaa !9
  %18 = icmp eq i8 %17, 0
  br i1 %18, label %31, label %19, !llvm.loop !10

19:                                               ; preds = %12, %15
  %20 = phi i64 [ 0, %12 ], [ %25, %15 ]
  %21 = phi i8 [ %10, %12 ], [ %17, %15 ]
  %22 = icmp ne i8 %21, %14
  %23 = icmp eq i64 %20, %13
  %24 = select i1 %22, i1 true, i1 %23
  %25 = add nuw i64 %20, 1
  br i1 %24, label %15, label %26

26:                                               ; preds = %19
  %27 = add nuw i64 %13, 1
  %28 = getelementptr inbounds [100000 x i8], [100000 x i8]* %1, i64 0, i64 %27
  %29 = load i8, i8* %28, align 1, !tbaa !9
  %30 = icmp eq i8 %29, 0
  br i1 %30, label %34, label %12, !llvm.loop !12

31:                                               ; preds = %15
  %32 = sext i8 %14 to i32
  %33 = call i32 @putchar(i32 %32)
  br label %36

34:                                               ; preds = %26, %8
  %35 = call i32 (i8*, ...) @printf(i8* nonnull dereferenceable(1) getelementptr inbounds ([3 x i8], [3 x i8]* @.str.3, i64 0, i64 0))
  br label %36

36:                                               ; preds = %34, %31
  %37 = call i32 @putchar(i32 10)
  %38 = load i32, i32* %2, align 4, !tbaa !5
  %39 = add nsw i32 %38, -1
  store i32 %39, i32* %2, align 4, !tbaa !5
  %40 = icmp sgt i32 %38, 1
  br i1 %40, label %8, label %41, !llvm.loop !13

41:                                               ; preds = %36, %0
  call void @llvm.lifetime.end.p0i8(i64 4, i8* nonnull %4) #4
  call void @llvm.lifetime.end.p0i8(i64 100000, i8* nonnull %3) #4
  ret i32 0
}

; Function Attrs: argmemonly mustprogress nofree nosync nounwind willreturn
declare void @llvm.lifetime.start.p0i8(i64 immarg, i8* nocapture) #1

; Function Attrs: nofree nounwind
declare noundef i32 @__isoc99_scanf(i8* nocapture noundef readonly, ...) local_unnamed_addr #2

; Function Attrs: nofree nounwind
declare noundef i32 @printf(i8* nocapture noundef readonly, ...) local_unnamed_addr #2

; Function Attrs: argmemonly mustprogress nofree nosync nounwind willreturn
declare void @llvm.lifetime.end.p0i8(i64 immarg, i8* nocapture) #1

; Function Attrs: nofree nounwind
declare noundef i32 @putchar(i32 noundef) local_unnamed_addr #3


!llvm.module.flags = !{!0, !1, !2, !3}
!llvm.ident = !{!4}

!0 = !{i32 1, !"wchar_size", i32 4}
!1 = !{i32 7, !"PIC Level", i32 2}
!2 = !{i32 7, !"PIE Level", i32 2}
!3 = !{i32 7, !"uwtable", i32 1}
!4 = !{!"clang version 13.0.0"}
!5 = !{!6, !6, i64 0}
!6 = !{!"int", !7, i64 0}
!7 = !{!"omnipotent char", !8, i64 0}
!8 = !{!"Simple C/C++ TBAA"}
!9 = !{!7, !7, i64 0}
!10 = distinct !{!10, !11}
!11 = !{!"llvm.loop.mustprogress"}
!12 = distinct !{!12, !11}
!13 = distinct !{!13, !11}
